; Function Attrs: mustprogress uwtable
define void @_ZN6duckdb15LambdaFunctions17BindTernaryLambdaEmRKNS_11LogicalTypeE(ptr dead_on_unwind noalias writable sret(%"struct.duckdb::LogicalType") align 8 %0, i64 noundef %1, ptr noundef nonnull align 8 dereferenceable(24) %2) local_unnamed_addr #3 align 2 personality ptr @__gxx_personality_v0 {
  %4 = alloca %"class.std::__cxx11::basic_string", align 8
  %5 = alloca %"class.std::allocator.71", align 1
  switch i64 %1, label %9 [
    i64 0, label %6
    i64 1, label %7
    i64 2, label %8
  ]

6:                                                ; preds = %3
  tail call void @_ZN6duckdb11LogicalTypeC1ERKS0_(ptr noundef nonnull align 8 dereferenceable(24) %0, ptr noundef nonnull align 8 dereferenceable(24) %2)
  br label %23

7:                                                ; preds = %3
  tail call void @_ZN6duckdb11LogicalTypeC1ERKS0_(ptr noundef nonnull align 8 dereferenceable(24) %0, ptr noundef nonnull align 8 dereferenceable(24) %2)
  br label %23

8:                                                ; preds = %3
  tail call void @_ZN6duckdb11LogicalTypeC1ENS_13LogicalTypeIdE(ptr noundef nonnull align 8 dereferenceable(24) %0, i8 noundef zeroext 14)
  br label %23

9:                                                ; preds = %3
  %10 = tail call ptr @__cxa_allocate_exception(i64 16) #22
  call void @llvm.lifetime.start.p0(i64 32, ptr nonnull %4) #22
  call void @llvm.lifetime.start.p0(i64 1, ptr nonnull %5) #22
  invoke void @_ZNSt7__cxx1112basic_stringIcSt11char_traitsIcESaIcEEC2EPKcRKS3_(ptr noundef nonnull align 8 dereferenceable(32) %4, ptr noundef nonnull @.str.4, ptr noundef nonnull align 1 dereferenceable(1) %5)
          to label %11 unwind label %_ZNSt7__cxx1112basic_stringIcSt11char_traitsIcESaIcEED2Ev.exit.thread

11:                                               ; preds = %9
  invoke void @_ZN6duckdb15BinderExceptionC1ERKNSt7__cxx1112basic_stringIcSt11char_traitsIcESaIcEEE(ptr noundef nonnull align 8 dereferenceable(16) %10, ptr noundef nonnull align 8 dereferenceable(32) %4)
          to label %12 unwind label %14

12:                                               ; preds = %11
  invoke void @__cxa_throw(ptr nonnull %10, ptr nonnull @_ZTIN6duckdb15BinderExceptionE, ptr nonnull @_ZNSt13runtime_errorD2Ev) #23
          to label %25 unwind label %14

_ZNSt7__cxx1112basic_stringIcSt11char_traitsIcESaIcEED2Ev.exit.thread: ; preds = %9
  %13 = landingpad { ptr, i32 }
          cleanup
  call void @llvm.lifetime.end.p0(i64 1, ptr nonnull %5) #22
  call void @llvm.lifetime.end.p0(i64 32, ptr nonnull %4) #22
  br label %22

14:                                               ; preds = %12, %11
  %.0 = phi i1 [ false, %12 ], [ true, %11 ]
  %15 = landingpad { ptr, i32 }
          cleanup
  %16 = load ptr, ptr %4, align 8, !tbaa !19
  %17 = getelementptr inbounds nuw i8, ptr %4, i64 16
  %18 = icmp eq ptr %16, %17
  br i1 %18, label %_ZNKSt7__cxx1112basic_stringIcSt11char_traitsIcESaIcEE11_M_is_localEv.exit.thread.i.i, label %_ZNSt7__cxx1112basic_stringIcSt11char_traitsIcESaIcEED2Ev.exit

_ZNKSt7__cxx1112basic_stringIcSt11char_traitsIcESaIcEE11_M_is_localEv.exit.thread.i.i: ; preds = %14
  %19 = getelementptr inbounds nuw i8, ptr %4, i64 8
  %20 = load i64, ptr %19, align 8, !tbaa !24
  %21 = icmp ult i64 %20, 16
  call void @llvm.assume(i1 %21)
  call void @llvm.lifetime.end.p0(i64 1, ptr nonnull %5) #22
  call void @llvm.lifetime.end.p0(i64 32, ptr nonnull %4) #22
  br i1 %.0, label %22, label %24

_ZNSt7__cxx1112basic_stringIcSt11char_traitsIcESaIcEED2Ev.exit: ; preds = %14
  call void @_ZdlPv(ptr noundef %16) #24
  call void @llvm.lifetime.end.p0(i64 1, ptr nonnull %5) #22
  call void @llvm.lifetime.end.p0(i64 32, ptr nonnull %4) #22
  br i1 %.0, label %22, label %24

22:                                               ; preds = %_ZNKSt7__cxx1112basic_stringIcSt11char_traitsIcESaIcEE11_M_is_localEv.exit.thread.i.i, %_ZNSt7__cxx1112basic_stringIcSt11char_traitsIcESaIcEED2Ev.exit.thread, %_ZNSt7__cxx1112basic_stringIcSt11char_traitsIcESaIcEED2Ev.exit
  %.pn11 = phi { ptr, i32 } [ %13, %_ZNSt7__cxx1112basic_stringIcSt11char_traitsIcESaIcEED2Ev.exit.thread ], [ %15, %_ZNSt7__cxx1112basic_stringIcSt11char_traitsIcESaIcEED2Ev.exit ], [ %15, %_ZNKSt7__cxx1112basic_stringIcSt11char_traitsIcESaIcEE11_M_is_localEv.exit.thread.i.i ]
  call void @__cxa_free_exception(ptr %10) #22
  br label %24

23:                                               ; preds = %8, %7, %6
  ret void

24:                                               ; preds = %_ZNKSt7__cxx1112basic_stringIcSt11char_traitsIcESaIcEE11_M_is_localEv.exit.thread.i.i, %_ZNSt7__cxx1112basic_stringIcSt11char_traitsIcESaIcEED2Ev.exit, %22
  %.pn10 = phi { ptr, i32 } [ %15, %_ZNSt7__cxx1112basic_stringIcSt11char_traitsIcESaIcEED2Ev.exit ], [ %.pn11, %22 ], [ %15, %_ZNKSt7__cxx1112basic_stringIcSt11char_traitsIcESaIcEE11_M_is_localEv.exit.thread.i.i ]
  resume { ptr, i32 } %.pn10

25:                                               ; preds = %12
  unreachable
}